; Function Attrs: mustprogress nofree norecurse nosync nounwind willreturn memory(readwrite, inaccessiblemem: none) uwtable
define internal range(i32 -1, 1) i32 @second_code_object_callback(i32 noundef %0, ptr readnone captures(none) %1) #4 {
  switch i32 %0, label %handle_code_object_event.exit [
    i32 0, label %.sink.split.i
    i32 1, label %3
  ]

3:                                                ; preds = %2
  br label %.sink.split.i

.sink.split.i:                                    ; preds = %3, %2
  %num_code_object_created_events.sink.i = phi ptr [ @num_code_object_destroyed_events, %3 ], [ @num_code_object_created_events, %2 ]
  %4 = getelementptr i8, ptr %num_code_object_created_events.sink.i, i64 4
  %5 = load i32, ptr %4, align 4, !tbaa !20
  %6 = add i32 %5, 1
  store i32 %6, ptr %4, align 4, !tbaa !20
  br label %handle_code_object_event.exit

handle_code_object_event.exit:                    ; preds = %2, %.sink.split.i
  %.0.i = phi i32 [ -1, %2 ], [ 0, %.sink.split.i ]
  ret i32 %.0.i
}